; Function Attrs: nounwind uwtable
define ptr @l_Lean_withEnv___rarg___lambda__2(ptr noundef %0, ptr noundef %1, ptr noundef %2, ptr noundef %3, ptr noundef %4, ptr noundef %5, ptr noundef %6) #0 {
  %8 = getelementptr inbounds nuw i8, ptr %0, i64 8
  %9 = load ptr, ptr %8, align 8, !tbaa !10
  %10 = ptrtoint ptr %9 to i64
  %11 = and i64 %10, 1
  %.not = icmp eq i64 %11, 0
  br i1 %.not, label %12, label %lean_inc.exit30

12:                                               ; preds = %7
  %.val.i = load i32, ptr %9, align 4, !tbaa !4
  %13 = icmp sgt i32 %.val.i, 0
  br i1 %13, label %14, label %16, !prof !9

14:                                               ; preds = %12
  %15 = add nuw i32 %.val.i, 1
  store i32 %15, ptr %9, align 4, !tbaa !4
  br label %lean_inc.exit30

16:                                               ; preds = %12
  %.not.i37 = icmp eq i32 %.val.i, 0
  br i1 %.not.i37, label %lean_inc.exit30, label %17

17:                                               ; preds = %16
  tail call void @lean_inc_ref_cold(ptr noundef nonnull %9) #4
  br label %lean_inc.exit30

lean_inc.exit30:                                  ; preds = %17, %16, %14, %7
  %18 = ptrtoint ptr %0 to i64
  %19 = and i64 %18, 1
  %.not48 = icmp eq i64 %19, 0
  br i1 %.not48, label %20, label %lean_dec.exit32

20:                                               ; preds = %lean_inc.exit30
  %21 = load i32, ptr %0, align 4, !tbaa !4
  %22 = icmp sgt i32 %21, 1
  br i1 %22, label %23, label %25, !prof !9

23:                                               ; preds = %20
  %24 = add nsw i32 %21, -1
  store i32 %24, ptr %0, align 4, !tbaa !4
  br label %lean_dec.exit32

25:                                               ; preds = %20
  %.not.i = icmp eq i32 %21, 0
  br i1 %.not.i, label %lean_dec.exit32, label %26

26:                                               ; preds = %25
  tail call void @lean_dec_ref_cold(ptr noundef nonnull %0) #4
  br label %lean_dec.exit32

lean_dec.exit32:                                  ; preds = %26, %25, %23, %lean_inc.exit30
  %27 = getelementptr inbounds nuw i8, ptr %9, i64 8
  %28 = load ptr, ptr %27, align 8, !tbaa !10
  %29 = ptrtoint ptr %28 to i64
  %30 = and i64 %29, 1
  %.not49 = icmp eq i64 %30, 0
  br i1 %.not49, label %31, label %lean_inc.exit29

31:                                               ; preds = %lean_dec.exit32
  %.val.i38 = load i32, ptr %28, align 4, !tbaa !4
  %32 = icmp sgt i32 %.val.i38, 0
  br i1 %32, label %33, label %35, !prof !9

33:                                               ; preds = %31
  %34 = add nuw i32 %.val.i38, 1
  store i32 %34, ptr %28, align 4, !tbaa !4
  br label %lean_inc.exit29

35:                                               ; preds = %31
  %.not.i39 = icmp eq i32 %.val.i38, 0
  br i1 %.not.i39, label %lean_inc.exit29, label %36

36:                                               ; preds = %35
  tail call void @lean_inc_ref_cold(ptr noundef nonnull %28) #4
  br label %lean_inc.exit29

lean_inc.exit29:                                  ; preds = %36, %35, %33, %lean_dec.exit32
  br i1 %.not, label %37, label %lean_dec.exit31

37:                                               ; preds = %lean_inc.exit29
  %38 = load i32, ptr %9, align 4, !tbaa !4
  %39 = icmp sgt i32 %38, 1
  br i1 %39, label %40, label %42, !prof !9

40:                                               ; preds = %37
  %41 = add nsw i32 %38, -1
  store i32 %41, ptr %9, align 4, !tbaa !4
  br label %lean_dec.exit31

42:                                               ; preds = %37
  %.not.i33 = icmp eq i32 %38, 0
  br i1 %.not.i33, label %lean_dec.exit31, label %43

43:                                               ; preds = %42
  tail call void @lean_dec_ref_cold(ptr noundef nonnull %9) #4
  br label %lean_dec.exit31

lean_dec.exit31:                                  ; preds = %43, %42, %40, %lean_inc.exit29
  %44 = ptrtoint ptr %1 to i64
  %45 = and i64 %44, 1
  %.not50 = icmp eq i64 %45, 0
  br i1 %.not50, label %46, label %lean_inc.exit28

46:                                               ; preds = %lean_dec.exit31
  %.val.i41 = load i32, ptr %1, align 4, !tbaa !4
  %47 = icmp sgt i32 %.val.i41, 0
  br i1 %47, label %48, label %50, !prof !9

48:                                               ; preds = %46
  %49 = add nuw i32 %.val.i41, 1
  store i32 %49, ptr %1, align 4, !tbaa !4
  br label %lean_inc.exit28

50:                                               ; preds = %46
  %.not.i42 = icmp eq i32 %.val.i41, 0
  br i1 %.not.i42, label %lean_inc.exit28, label %51

51:                                               ; preds = %50
  tail call void @lean_inc_ref_cold(ptr noundef nonnull %1) #4
  br label %lean_inc.exit28

lean_inc.exit28:                                  ; preds = %51, %50, %48, %lean_dec.exit31
  %52 = tail call ptr @l_Lean_setEnv___rarg(ptr noundef %1, ptr noundef %2)
  tail call void @lean_inc_heartbeat() #4
  %53 = tail call noalias ptr @mi_malloc_small(i64 noundef 32) #4
  %54 = icmp eq ptr %53, null
  br i1 %54, label %55, label %lean_alloc_closure.exit

55:                                               ; preds = %lean_inc.exit28
  tail call void @lean_internal_panic_out_of_memory() #5
  unreachable

lean_alloc_closure.exit:                          ; preds = %lean_inc.exit28
  %56 = getelementptr inbounds nuw i8, ptr %53, i64 4
  store i32 1, ptr %53, align 4, !tbaa !4
  store i32 -184549344, ptr %56, align 4
  %57 = getelementptr inbounds nuw i8, ptr %53, i64 8
  store ptr @l_Lean_setEnv___rarg___lambda__1___boxed, ptr %57, align 8, !tbaa !10
  %58 = getelementptr inbounds nuw i8, ptr %53, i64 16
  store i16 2, ptr %58, align 8, !tbaa !12
  %59 = getelementptr inbounds nuw i8, ptr %53, i64 18
  store i16 1, ptr %59, align 2, !tbaa !12
  %60 = getelementptr inbounds nuw i8, ptr %53, i64 24
  store ptr %3, ptr %60, align 8, !tbaa !10
  %61 = tail call ptr @lean_apply_4(ptr noundef %4, ptr noundef nonnull inttoptr (i64 1 to ptr), ptr noundef nonnull inttoptr (i64 1 to ptr), ptr noundef %52, ptr noundef nonnull %53) #4
  %62 = tail call ptr @l_Lean_setEnv___rarg(ptr noundef %1, ptr noundef %6)
  tail call void @lean_inc_heartbeat() #4
  %63 = tail call noalias ptr @mi_malloc_small(i64 noundef 32) #4
  %64 = icmp eq ptr %63, null
  br i1 %64, label %65, label %lean_alloc_closure.exit44

65:                                               ; preds = %lean_alloc_closure.exit
  tail call void @lean_internal_panic_out_of_memory() #5
  unreachable

lean_alloc_closure.exit44:                        ; preds = %lean_alloc_closure.exit
  %66 = getelementptr inbounds nuw i8, ptr %63, i64 4
  store i32 1, ptr %63, align 4, !tbaa !4
  store i32 -184549344, ptr %66, align 4
  %67 = getelementptr inbounds nuw i8, ptr %63, i64 8
  store ptr @l_Lean_setEnv___rarg___lambda__1___boxed, ptr %67, align 8, !tbaa !10
  %68 = getelementptr inbounds nuw i8, ptr %63, i64 16
  store i16 2, ptr %68, align 8, !tbaa !12
  %69 = getelementptr inbounds nuw i8, ptr %63, i64 18
  store i16 1, ptr %69, align 2, !tbaa !12
  %70 = getelementptr inbounds nuw i8, ptr %63, i64 24
  store ptr %62, ptr %70, align 8, !tbaa !10
  %71 = tail call ptr @lean_apply_4(ptr noundef %5, ptr noundef nonnull inttoptr (i64 1 to ptr), ptr noundef nonnull inttoptr (i64 1 to ptr), ptr noundef %61, ptr noundef nonnull %63) #4
  %72 = getelementptr inbounds nuw i8, ptr %28, i64 8
  %73 = load ptr, ptr %72, align 8, !tbaa !10
  %74 = ptrtoint ptr %73 to i64
  %75 = and i64 %74, 1
  %.not51 = icmp eq i64 %75, 0
  br i1 %.not51, label %76, label %lean_inc.exit

76:                                               ; preds = %lean_alloc_closure.exit44
  %.val.i45 = load i32, ptr %73, align 4, !tbaa !4
  %77 = icmp sgt i32 %.val.i45, 0
  br i1 %77, label %78, label %80, !prof !9

78:                                               ; preds = %76
  %79 = add nuw i32 %.val.i45, 1
  store i32 %79, ptr %73, align 4, !tbaa !4
  br label %lean_inc.exit

80:                                               ; preds = %76
  %.not.i46 = icmp eq i32 %.val.i45, 0
  br i1 %.not.i46, label %lean_inc.exit, label %81

81:                                               ; preds = %80
  tail call void @lean_inc_ref_cold(ptr noundef nonnull %73) #4
  br label %lean_inc.exit

lean_inc.exit:                                    ; preds = %81, %80, %78, %lean_alloc_closure.exit44
  br i1 %.not49, label %82, label %lean_dec.exit

82:                                               ; preds = %lean_inc.exit
  %83 = load i32, ptr %28, align 4, !tbaa !4
  %84 = icmp sgt i32 %83, 1
  br i1 %84, label %85, label %87, !prof !9

85:                                               ; preds = %82
  %86 = add nsw i32 %83, -1
  store i32 %86, ptr %28, align 4, !tbaa !4
  br label %lean_dec.exit

87:                                               ; preds = %82
  %.not.i35 = icmp eq i32 %83, 0
  br i1 %.not.i35, label %lean_dec.exit, label %88

88:                                               ; preds = %87
  tail call void @lean_dec_ref_cold(ptr noundef nonnull %28) #4
  br label %lean_dec.exit

lean_dec.exit:                                    ; preds = %88, %87, %85, %lean_inc.exit
  %89 = load ptr, ptr @l_Lean_withEnv___rarg___lambda__2___closed__1, align 8, !tbaa !10
  %90 = tail call ptr @lean_apply_4(ptr noundef %73, ptr noundef nonnull inttoptr (i64 1 to ptr), ptr noundef nonnull inttoptr (i64 1 to ptr), ptr noundef %89, ptr noundef %71) #4
  ret ptr %90
}